target datalayout = "e-m:e-p270:32:32-p271:32:32-p272:64:64-i64:64-i128:128-f80:128-n8:16:32:64-S128"
target triple = "x86_64-unknown-linux-gnu"

%"class.cvc5::internal::NodeTemplate.28" = type { ptr }
%"class.cvc5::internal::Rational" = type { %class.__gmp_expr }
%class.__gmp_expr = type { [1 x %struct.__mpq_struct] }
%struct.__mpq_struct = type { %struct.__mpz_struct, %struct.__mpz_struct }
%struct.__mpz_struct = type { i32, i32, ptr }
%"class.cvc5::internal::theory::arith::linear::ArithVariables::VarInfo" = type <{ i32, [4 x i8], %"class.cvc5::internal::DeltaRational", ptr, ptr, i32, i32, i32, i32, %"class.cvc5::internal::NodeTemplate.28", i8, [7 x i8] }>
%"class.cvc5::internal::DeltaRational" = type { %"class.cvc5::internal::Rational", %"class.cvc5::internal::Rational" }
%"class.cvc5::internal::theory::arith::linear::BoundsInfo" = type { %"class.cvc5::internal::theory::arith::linear::BoundCounts", %"class.cvc5::internal::theory::arith::linear::BoundCounts" }
%"class.cvc5::internal::theory::arith::linear::BoundCounts" = type { i32, i32 }

; Function Attrs: mustprogress nounwind uwtable
define linkonce_odr hidden void @_ZN4cvc58internal6theory5arith6linear11BoundCountsC2Ejj(ptr noundef nonnull align 4 dereferenceable(8) %this, i32 noundef %lbs, i32 noundef %ubs) unnamed_addr #5 comdat align 2 {
entry:
  %this.addr = alloca ptr, align 8
  %lbs.addr = alloca i32, align 4
  %ubs.addr = alloca i32, align 4
  store ptr %this, ptr %this.addr, align 8
  store i32 %lbs, ptr %lbs.addr, align 4
  store i32 %ubs, ptr %ubs.addr, align 4
  %this1 = load ptr, ptr %this.addr, align 8
  %d_lowerBoundCount = getelementptr inbounds %"class.cvc5::internal::theory::arith::linear::BoundCounts", ptr %this1, i32 0, i32 0
  %0 = load i32, ptr %lbs.addr, align 4
  store i32 %0, ptr %d_lowerBoundCount, align 4
  %d_upperBoundCount = getelementptr inbounds %"class.cvc5::internal::theory::arith::linear::BoundCounts", ptr %this1, i32 0, i32 1
  %1 = load i32, ptr %ubs.addr, align 4
  store i32 %1, ptr %d_upperBoundCount, align 4
  ret void
}

; Function Attrs: mustprogress nounwind uwtable
define linkonce_odr hidden void @_ZN4cvc58internal6theory5arith6linear10BoundsInfoC2ENS3_11BoundCountsES5_(ptr noundef nonnull align 4 dereferenceable(16) %this, i64 %atBounds.coerce, i64 %hasBounds.coerce) unnamed_addr #5 comdat align 2 {
entry:
  %atBounds = alloca %"class.cvc5::internal::theory::arith::linear::BoundCounts", align 4
  %hasBounds = alloca %"class.cvc5::internal::theory::arith::linear::BoundCounts", align 4
  %this.addr = alloca ptr, align 8
  store i64 %atBounds.coerce, ptr %atBounds, align 4
  store i64 %hasBounds.coerce, ptr %hasBounds, align 4
  store ptr %this, ptr %this.addr, align 8
  %this1 = load ptr, ptr %this.addr, align 8
  %d_atBounds = getelementptr inbounds %"class.cvc5::internal::theory::arith::linear::BoundsInfo", ptr %this1, i32 0, i32 0
  call void @llvm.memcpy.p0.p0.i64(ptr align 4 %d_atBounds, ptr align 4 %atBounds, i64 8, i1 false)
  %d_hasBounds = getelementptr inbounds %"class.cvc5::internal::theory::arith::linear::BoundsInfo", ptr %this1, i32 0, i32 1
  call void @llvm.memcpy.p0.p0.i64(ptr align 4 %d_hasBounds, ptr align 4 %hasBounds, i64 8, i1 false)
  ret void
}

; Function Attrs: mustprogress uwtable
define hidden i64 @_ZNK4cvc58internal6theory5arith6linear14ArithVariables7VarInfo14hasBoundCountsEv(ptr noundef nonnull align 8 dereferenceable(113) %this) #4 align 2 {
entry:
  %retval = alloca %"class.cvc5::internal::theory::arith::linear::BoundCounts", align 4
  %this.addr = alloca ptr, align 8
  %lbIndc = alloca i32, align 4
  %ubIndc = alloca i32, align 4
  store ptr %this, ptr %this.addr, align 8
  %this1 = load ptr, ptr %this.addr, align 8
  %d_lb = getelementptr inbounds %"class.cvc5::internal::theory::arith::linear::ArithVariables::VarInfo", ptr %this1, i32 0, i32 3
  %0 = load ptr, ptr %d_lb, align 8
  %cmp = icmp ne ptr %0, null
  %cond = select i1 %cmp, i32 1, i32 0
  store i32 %cond, ptr %lbIndc, align 4
  %d_ub = getelementptr inbounds %"class.cvc5::internal::theory::arith::linear::ArithVariables::VarInfo", ptr %this1, i32 0, i32 4
  %1 = load ptr, ptr %d_ub, align 8
  %cmp2 = icmp ne ptr %1, null
  %cond3 = select i1 %cmp2, i32 1, i32 0
  store i32 %cond3, ptr %ubIndc, align 4
  %2 = load i32, ptr %lbIndc, align 4
  %3 = load i32, ptr %ubIndc, align 4
  call void @_ZN4cvc58internal6theory5arith6linear11BoundCountsC2Ejj(ptr noundef nonnull align 4 dereferenceable(8) %retval, i32 noundef %2, i32 noundef %3)
  %4 = load i64, ptr %retval, align 4
  ret i64 %4
}

; Function Attrs: mustprogress uwtable
define hidden i64 @_ZNK4cvc58internal6theory5arith6linear14ArithVariables7VarInfo13atBoundCountsEv(ptr noundef nonnull align 8 dereferenceable(113) %this) #4 align 2 {
entry:
  %retval = alloca %"class.cvc5::internal::theory::arith::linear::BoundCounts", align 4
  %this.addr = alloca ptr, align 8
  %lbIndc = alloca i32, align 4
  %ubIndc = alloca i32, align 4
  store ptr %this, ptr %this.addr, align 8
  %this1 = load ptr, ptr %this.addr, align 8
  %d_cmpAssignmentLB = getelementptr inbounds %"class.cvc5::internal::theory::arith::linear::ArithVariables::VarInfo", ptr %this1, i32 0, i32 5
  %0 = load i32, ptr %d_cmpAssignmentLB, align 8
  %cmp = icmp eq i32 %0, 0
  %cond = select i1 %cmp, i32 1, i32 0
  store i32 %cond, ptr %lbIndc, align 4
  %d_cmpAssignmentUB = getelementptr inbounds %"class.cvc5::internal::theory::arith::linear::ArithVariables::VarInfo", ptr %this1, i32 0, i32 6
  %1 = load i32, ptr %d_cmpAssignmentUB, align 4
  %cmp2 = icmp eq i32 %1, 0
  %cond3 = select i1 %cmp2, i32 1, i32 0
  store i32 %cond3, ptr %ubIndc, align 4
  %2 = load i32, ptr %lbIndc, align 4
  %3 = load i32, ptr %ubIndc, align 4
  call void @_ZN4cvc58internal6theory5arith6linear11BoundCountsC2Ejj(ptr noundef nonnull align 4 dereferenceable(8) %retval, i32 noundef %2, i32 noundef %3)
  %4 = load i64, ptr %retval, align 4
  ret i64 %4
}

; Function Attrs: mustprogress uwtable
define hidden { i64, i64 } @_ZNK4cvc58internal6theory5arith6linear14ArithVariables7VarInfo10boundsInfoEv(ptr noundef nonnull align 8 dereferenceable(113) %this) #4 align 2 {
entry:
  %retval = alloca %"class.cvc5::internal::theory::arith::linear::BoundsInfo", align 4
  %this.addr = alloca ptr, align 8
  %agg.tmp = alloca %"class.cvc5::internal::theory::arith::linear::BoundCounts", align 4
  %agg.tmp2 = alloca %"class.cvc5::internal::theory::arith::linear::BoundCounts", align 4
  store ptr %this, ptr %this.addr, align 8
  %this1 = load ptr, ptr %this.addr, align 8
  %call = call i64 @_ZNK4cvc58internal6theory5arith6linear14ArithVariables7VarInfo13atBoundCountsEv(ptr noundef nonnull align 8 dereferenceable(113) %this1)
  store i64 %call, ptr %agg.tmp, align 4
  %call3 = call i64 @_ZNK4cvc58internal6theory5arith6linear14ArithVariables7VarInfo14hasBoundCountsEv(ptr noundef nonnull align 8 dereferenceable(113) %this1)
  store i64 %call3, ptr %agg.tmp2, align 4
  %0 = load i64, ptr %agg.tmp, align 4
  %1 = load i64, ptr %agg.tmp2, align 4
  call void @_ZN4cvc58internal6theory5arith6linear10BoundsInfoC2ENS3_11BoundCountsES5_(ptr noundef nonnull align 4 dereferenceable(16) %retval, i64 %0, i64 %1)
  %2 = load { i64, i64 }, ptr %retval, align 4
  ret { i64, i64 } %2
}