; Function Attrs: mustprogress nofree norecurse nosync nounwind willreturn memory(argmem: read) uwtable
define hidden { i64, i64 } @_ZNK4cvc58internal6theory5arith6linear14ArithVariables7VarInfo10boundsInfoEv(ptr nocapture noundef nonnull readonly align 8 dereferenceable(113) %this) local_unnamed_addr #6 align 2 {
entry:
  %d_cmpAssignmentLB.i = getelementptr inbounds i8, ptr %this, i64 88
  %0 = load i32, ptr %d_cmpAssignmentLB.i, align 8
  %cmp.i = icmp eq i32 %0, 0
  %d_cmpAssignmentUB.i = getelementptr inbounds i8, ptr %this, i64 92
  %1 = load i32, ptr %d_cmpAssignmentUB.i, align 4
  %cmp2.i = icmp eq i32 %1, 0
  %retval.sroa.2.0.insert.shift.i = select i1 %cmp2.i, i64 4294967296, i64 0
  %retval.sroa.0.0.insert.ext.i = zext i1 %cmp.i to i64
  %retval.sroa.0.0.insert.insert.i = or disjoint i64 %retval.sroa.2.0.insert.shift.i, %retval.sroa.0.0.insert.ext.i
  %d_lb.i = getelementptr inbounds i8, ptr %this, i64 72
  %2 = load ptr, ptr %d_lb.i, align 8
  %cmp.not.i = icmp ne ptr %2, null
  %d_ub.i = getelementptr inbounds i8, ptr %this, i64 80
  %3 = load ptr, ptr %d_ub.i, align 8
  %cmp2.not.not.i = icmp eq ptr %3, null
  %retval.sroa.2.0.insert.shift.i1 = select i1 %cmp2.not.not.i, i64 0, i64 4294967296
  %retval.sroa.0.0.insert.ext.i2 = zext i1 %cmp.not.i to i64
  %retval.sroa.0.0.insert.insert.i3 = or disjoint i64 %retval.sroa.2.0.insert.shift.i1, %retval.sroa.0.0.insert.ext.i2
  %.fca.0.insert = insertvalue { i64, i64 } poison, i64 %retval.sroa.0.0.insert.insert.i, 0
  %.fca.1.insert = insertvalue { i64, i64 } %.fca.0.insert, i64 %retval.sroa.0.0.insert.insert.i3, 1
  ret { i64, i64 } %.fca.1.insert
}